target datalayout = "e-m:e-p270:32:32-p271:32:32-p272:64:64-i64:64-i128:128-f80:128-n8:16:32:64-S128"
target triple = "x86_64-unknown-linux-gnu"

%"struct.std::_Vector_base" = type { %"struct.std::_Vector_base<std::unique_ptr<node::DataQueue::Entry>, std::allocator<std::unique_ptr<node::DataQueue::Entry>>>::_Vector_impl" }
%"struct.std::_Vector_base<std::unique_ptr<node::DataQueue::Entry>, std::allocator<std::unique_ptr<node::DataQueue::Entry>>>::_Vector_impl" = type { %"struct.std::_Vector_base<std::unique_ptr<node::DataQueue::Entry>, std::allocator<std::unique_ptr<node::DataQueue::Entry>>>::_Vector_impl_data" }
%"struct.std::_Vector_base<std::unique_ptr<node::DataQueue::Entry>, std::allocator<std::unique_ptr<node::DataQueue::Entry>>>::_Vector_impl_data" = type { ptr, ptr, ptr }
%"class.std::optional" = type { %"struct.std::_Optional_base" }
%"struct.std::_Optional_base" = type { %"struct.std::_Optional_payload" }
%"struct.std::_Optional_payload" = type { %"struct.std::_Optional_payload_base.base", [7 x i8] }
%"struct.std::_Optional_payload_base.base" = type <{ %"union.std::_Optional_payload_base<unsigned long>::_Storage", i8 }>
%"union.std::_Optional_payload_base<unsigned long>::_Storage" = type { i64 }
%"class.node::MemoryRetainer" = type { ptr }
%"struct.std::__detail::_Hash_node_base" = type { ptr }
%"struct.std::__detail::_Prime_rehash_policy" = type { float, i64 }
%"struct.std::_Optional_payload_base" = type <{ %"union.std::_Optional_payload_base<unsigned long>::_Storage", i8, [7 x i8] }>
%"class.std::__weak_count" = type { ptr }
%"class.node::(anonymous namespace)::DataQueueImpl" = type { %"class.node::DataQueue", %"class.std::enable_shared_from_this.432", %"class.std::vector", i8, [7 x i8], %"class.std::optional", %"class.std::optional", i8, %"class.std::unordered_set.435" }
%"class.node::DataQueue" = type { %"class.node::MemoryRetainer" }
%"class.std::enable_shared_from_this.432" = type { %"class.std::weak_ptr.433" }
%"class.std::weak_ptr.433" = type { %"class.std::__weak_ptr.434" }
%"class.std::__weak_ptr.434" = type { ptr, %"class.std::__weak_count" }
%"class.std::vector" = type { %"struct.std::_Vector_base" }
%"class.std::unordered_set.435" = type { %"class.std::_Hashtable.436" }
%"class.std::_Hashtable.436" = type { ptr, i64, %"struct.std::__detail::_Hash_node_base", i64, %"struct.std::__detail::_Prime_rehash_policy", ptr }

; Function Attrs: mustprogress nounwind uwtable
define linkonce_odr dso_local void @_ZNSt22_Optional_payload_baseImE8_StorageImLb1EEC2IJRmEEESt10in_place_tDpOT_(ptr noundef nonnull align 8 dereferenceable(8) %this, ptr noundef nonnull align 8 dereferenceable(8) %__args) unnamed_addr #4 comdat align 2 {
entry:
  %this.addr = alloca ptr, align 8
  %__args.addr = alloca ptr, align 8
  store ptr %this, ptr %this.addr, align 8
  store ptr %__args, ptr %__args.addr, align 8
  %this1 = load ptr, ptr %this.addr, align 8
  %0 = load ptr, ptr %__args.addr, align 8
  %1 = load i64, ptr %0, align 8
  store i64 %1, ptr %this1, align 8
  ret void
}

; Function Attrs: mustprogress nounwind uwtable
define linkonce_odr dso_local void @_ZNSt22_Optional_payload_baseImE8_StorageImLb1EEC2IJRKmEEESt10in_place_tDpOT_(ptr noundef nonnull align 8 dereferenceable(8) %this, ptr noundef nonnull align 8 dereferenceable(8) %__args) unnamed_addr #4 comdat align 2 {
entry:
  %this.addr = alloca ptr, align 8
  %__args.addr = alloca ptr, align 8
  store ptr %this, ptr %this.addr, align 8
  store ptr %__args, ptr %__args.addr, align 8
  %this1 = load ptr, ptr %this.addr, align 8
  %0 = load ptr, ptr %__args.addr, align 8
  %1 = load i64, ptr %0, align 8
  store i64 %1, ptr %this1, align 8
  ret void
}

; Function Attrs: mustprogress nounwind uwtable
define linkonce_odr dso_local void @_ZNSt22_Optional_payload_baseImEC2IJRmEEESt10in_place_tDpOT_(ptr noundef nonnull align 8 dereferenceable(9) %this, ptr noundef nonnull align 8 dereferenceable(8) %__args) unnamed_addr #4 comdat align 2 {
entry:
  %this.addr = alloca ptr, align 8
  %__args.addr = alloca ptr, align 8
  store ptr %this, ptr %this.addr, align 8
  store ptr %__args, ptr %__args.addr, align 8
  %this1 = load ptr, ptr %this.addr, align 8
  %_M_payload = getelementptr inbounds %"struct.std::_Optional_payload_base", ptr %this1, i32 0, i32 0
  %0 = load ptr, ptr %__args.addr, align 8
  call void @_ZNSt22_Optional_payload_baseImE8_StorageImLb1EEC2IJRmEEESt10in_place_tDpOT_(ptr noundef nonnull align 8 dereferenceable(8) %_M_payload, ptr noundef nonnull align 8 dereferenceable(8) %0)
  %_M_engaged = getelementptr inbounds %"struct.std::_Optional_payload_base", ptr %this1, i32 0, i32 1
  store i8 1, ptr %_M_engaged, align 8
  ret void
}

; Function Attrs: mustprogress nounwind uwtable
define linkonce_odr dso_local void @_ZNSt22_Optional_payload_baseImEC2IJRKmEEESt10in_place_tDpOT_(ptr noundef nonnull align 8 dereferenceable(9) %this, ptr noundef nonnull align 8 dereferenceable(8) %__args) unnamed_addr #4 comdat align 2 {
entry:
  %this.addr = alloca ptr, align 8
  %__args.addr = alloca ptr, align 8
  store ptr %this, ptr %this.addr, align 8
  store ptr %__args, ptr %__args.addr, align 8
  %this1 = load ptr, ptr %this.addr, align 8
  %_M_payload = getelementptr inbounds %"struct.std::_Optional_payload_base", ptr %this1, i32 0, i32 0
  %0 = load ptr, ptr %__args.addr, align 8
  call void @_ZNSt22_Optional_payload_baseImE8_StorageImLb1EEC2IJRKmEEESt10in_place_tDpOT_(ptr noundef nonnull align 8 dereferenceable(8) %_M_payload, ptr noundef nonnull align 8 dereferenceable(8) %0)
  %_M_engaged = getelementptr inbounds %"struct.std::_Optional_payload_base", ptr %this1, i32 0, i32 1
  store i8 1, ptr %_M_engaged, align 8
  ret void
}

; Function Attrs: mustprogress nounwind uwtable
define linkonce_odr dso_local void @_ZNSt17_Optional_payloadImLb1ELb1ELb1EECI2St22_Optional_payload_baseImEIJRmEEESt10in_place_tDpOT_(ptr noundef nonnull align 8 dereferenceable(9) %this, ptr noundef nonnull align 8 dereferenceable(8) %0) unnamed_addr #4 comdat align 2 {
entry:
  %this.addr = alloca ptr, align 8
  %.addr = alloca ptr, align 8
  store ptr %this, ptr %this.addr, align 8
  store ptr %0, ptr %.addr, align 8
  %this1 = load ptr, ptr %this.addr, align 8
  %1 = load ptr, ptr %.addr, align 8
  call void @_ZNSt22_Optional_payload_baseImEC2IJRmEEESt10in_place_tDpOT_(ptr noundef nonnull align 8 dereferenceable(9) %this1, ptr noundef nonnull align 8 dereferenceable(8) %1)
  ret void
}

; Function Attrs: mustprogress nounwind uwtable
define linkonce_odr dso_local void @_ZNSt17_Optional_payloadImLb1ELb1ELb1EECI2St22_Optional_payload_baseImEIJRKmEEESt10in_place_tDpOT_(ptr noundef nonnull align 8 dereferenceable(9) %this, ptr noundef nonnull align 8 dereferenceable(8) %0) unnamed_addr #4 comdat align 2 {
entry:
  %this.addr = alloca ptr, align 8
  %.addr = alloca ptr, align 8
  store ptr %this, ptr %this.addr, align 8
  store ptr %0, ptr %.addr, align 8
  %this1 = load ptr, ptr %this.addr, align 8
  %1 = load ptr, ptr %.addr, align 8
  call void @_ZNSt22_Optional_payload_baseImEC2IJRKmEEESt10in_place_tDpOT_(ptr noundef nonnull align 8 dereferenceable(9) %this1, ptr noundef nonnull align 8 dereferenceable(8) %1)
  ret void
}

; Function Attrs: mustprogress nounwind uwtable
define linkonce_odr dso_local noundef nonnull align 8 dereferenceable(8) ptr @_ZNSt22_Optional_payload_baseImE6_M_getEv(ptr noundef nonnull align 8 dereferenceable(9) %this) #4 comdat align 2 {
entry:
  %this.addr = alloca ptr, align 8
  store ptr %this, ptr %this.addr, align 8
  %this1 = load ptr, ptr %this.addr, align 8
  %_M_payload = getelementptr inbounds %"struct.std::_Optional_payload_base", ptr %this1, i32 0, i32 0
  ret ptr %_M_payload
}

; Function Attrs: mustprogress nounwind uwtable
define linkonce_odr dso_local void @_ZNSt14_Optional_baseImLb1ELb1EEC2IJRmETnNSt9enable_ifIX18is_constructible_vImDpT_EEbE4typeELb0EEESt10in_place_tDpOS4_(ptr noundef nonnull align 8 dereferenceable(16) %this, ptr noundef nonnull align 8 dereferenceable(8) %__args) unnamed_addr #4 comdat align 2 {
entry:
  %this.addr = alloca ptr, align 8
  %__args.addr = alloca ptr, align 8
  store ptr %this, ptr %this.addr, align 8
  store ptr %__args, ptr %__args.addr, align 8
  %this1 = load ptr, ptr %this.addr, align 8
  %_M_payload = getelementptr inbounds %"struct.std::_Optional_base", ptr %this1, i32 0, i32 0
  %0 = load ptr, ptr %__args.addr, align 8
  call void @_ZNSt17_Optional_payloadImLb1ELb1ELb1EECI2St22_Optional_payload_baseImEIJRmEEESt10in_place_tDpOT_(ptr noundef nonnull align 8 dereferenceable(9) %_M_payload, ptr noundef nonnull align 8 dereferenceable(8) %0)
  ret void
}

; Function Attrs: mustprogress nounwind uwtable
define linkonce_odr dso_local void @_ZNSt14_Optional_baseImLb1ELb1EEC2IJRKmETnNSt9enable_ifIX18is_constructible_vImDpT_EEbE4typeELb0EEESt10in_place_tDpOS5_(ptr noundef nonnull align 8 dereferenceable(16) %this, ptr noundef nonnull align 8 dereferenceable(8) %__args) unnamed_addr #4 comdat align 2 {
entry:
  %this.addr = alloca ptr, align 8
  %__args.addr = alloca ptr, align 8
  store ptr %this, ptr %this.addr, align 8
  store ptr %__args, ptr %__args.addr, align 8
  %this1 = load ptr, ptr %this.addr, align 8
  %_M_payload = getelementptr inbounds %"struct.std::_Optional_base", ptr %this1, i32 0, i32 0
  %0 = load ptr, ptr %__args.addr, align 8
  call void @_ZNSt17_Optional_payloadImLb1ELb1ELb1EECI2St22_Optional_payload_baseImEIJRKmEEESt10in_place_tDpOT_(ptr noundef nonnull align 8 dereferenceable(9) %_M_payload, ptr noundef nonnull align 8 dereferenceable(8) %0)
  ret void
}

; Function Attrs: mustprogress noreturn nounwind uwtable
define linkonce_odr dso_local void @_ZSt27__throw_bad_optional_accessv() #12 comdat {
entry:
  call void @abort() #13
  unreachable
}

; Function Attrs: mustprogress nounwind uwtable
define linkonce_odr dso_local noundef nonnull align 8 dereferenceable(8) ptr @_ZNSt19_Optional_base_implImSt14_Optional_baseImLb1ELb1EEE6_M_getEv(ptr noundef nonnull align 1 dereferenceable(1) %this) #4 comdat align 2 {
entry:
  %this.addr = alloca ptr, align 8
  store ptr %this, ptr %this.addr, align 8
  %this1 = load ptr, ptr %this.addr, align 8
  br label %do.body

do.body:                                          ; preds = %entry
  br label %do.end

do.end:                                           ; preds = %do.body
  %_M_payload = getelementptr inbounds %"struct.std::_Optional_base", ptr %this1, i32 0, i32 0
  %call = call noundef nonnull align 8 dereferenceable(8) ptr @_ZNSt22_Optional_payload_baseImE6_M_getEv(ptr noundef nonnull align 8 dereferenceable(9) %_M_payload) #3
  ret ptr %call
}

; Function Attrs: mustprogress nounwind uwtable
define linkonce_odr dso_local noundef zeroext i1 @_ZNKSt19_Optional_base_implImSt14_Optional_baseImLb1ELb1EEE13_M_is_engagedEv(ptr noundef nonnull align 1 dereferenceable(1) %this) #4 comdat align 2 {
entry:
  %this.addr = alloca ptr, align 8
  store ptr %this, ptr %this.addr, align 8
  %this1 = load ptr, ptr %this.addr, align 8
  %_M_payload = getelementptr inbounds %"struct.std::_Optional_base", ptr %this1, i32 0, i32 0
  %_M_engaged = getelementptr inbounds %"struct.std::_Optional_payload_base", ptr %_M_payload, i32 0, i32 1
  %0 = load i8, ptr %_M_engaged, align 8
  %tobool = trunc i8 %0 to i1
  ret i1 %tobool
}

; Function Attrs: mustprogress nounwind uwtable
define linkonce_odr dso_local void @_ZNSt8optionalImEC2IRmTnNSt9enable_ifIX7__and_vISt6__not_ISt7is_sameIS0_NSt9remove_cvINSt16remove_referenceIT_E4typeEE4typeEEES4_IS5_ISt10in_place_tSC_EESt16is_constructibleImJS8_EESt14is_convertibleIS8_mEEEbE4typeELb1EEEOS8_(ptr noundef nonnull align 8 dereferenceable(16) %this, ptr noundef nonnull align 8 dereferenceable(8) %__t) unnamed_addr #4 comdat align 2 {
entry:
  %this.addr = alloca ptr, align 8
  %__t.addr = alloca ptr, align 8
  store ptr %this, ptr %this.addr, align 8
  store ptr %__t, ptr %__t.addr, align 8
  %this1 = load ptr, ptr %this.addr, align 8
  %0 = load ptr, ptr %__t.addr, align 8
  call void @_ZNSt14_Optional_baseImLb1ELb1EEC2IJRmETnNSt9enable_ifIX18is_constructible_vImDpT_EEbE4typeELb0EEESt10in_place_tDpOS4_(ptr noundef nonnull align 8 dereferenceable(16) %this1, ptr noundef nonnull align 8 dereferenceable(8) %0)
  ret void
}

; Function Attrs: mustprogress nounwind uwtable
define linkonce_odr dso_local void @_ZNSt8optionalImEC2IRKmTnNSt9enable_ifIX7__and_vISt6__not_ISt7is_sameIS0_NSt9remove_cvINSt16remove_referenceIT_E4typeEE4typeEEES5_IS6_ISt10in_place_tSD_EESt16is_constructibleImJS9_EESt14is_convertibleIS9_mEEEbE4typeELb1EEEOS9_(ptr noundef nonnull align 8 dereferenceable(16) %this, ptr noundef nonnull align 8 dereferenceable(8) %__t) unnamed_addr #4 comdat align 2 {
entry:
  %this.addr = alloca ptr, align 8
  %__t.addr = alloca ptr, align 8
  store ptr %this, ptr %this.addr, align 8
  store ptr %__t, ptr %__t.addr, align 8
  %this1 = load ptr, ptr %this.addr, align 8
  %0 = load ptr, ptr %__t.addr, align 8
  call void @_ZNSt14_Optional_baseImLb1ELb1EEC2IJRKmETnNSt9enable_ifIX18is_constructible_vImDpT_EEbE4typeELb0EEESt10in_place_tDpOS5_(ptr noundef nonnull align 8 dereferenceable(16) %this1, ptr noundef nonnull align 8 dereferenceable(8) %0)
  ret void
}

; Function Attrs: mustprogress nounwind uwtable
define linkonce_odr dso_local noundef nonnull align 8 dereferenceable(8) ptr @_ZSt3minImERKT_S2_S2_(ptr noundef nonnull align 8 dereferenceable(8) %__a, ptr noundef nonnull align 8 dereferenceable(8) %__b) #4 comdat {
entry:
  %retval = alloca ptr, align 8
  %__a.addr = alloca ptr, align 8
  %__b.addr = alloca ptr, align 8
  store ptr %__a, ptr %__a.addr, align 8
  store ptr %__b, ptr %__b.addr, align 8
  %0 = load ptr, ptr %__b.addr, align 8
  %1 = load i64, ptr %0, align 8
  %2 = load ptr, ptr %__a.addr, align 8
  %3 = load i64, ptr %2, align 8
  %cmp = icmp ult i64 %1, %3
  br i1 %cmp, label %if.then, label %if.end

if.then:                                          ; preds = %entry
  %4 = load ptr, ptr %__b.addr, align 8
  store ptr %4, ptr %retval, align 8
  br label %return

if.end:                                           ; preds = %entry
  %5 = load ptr, ptr %__a.addr, align 8
  store ptr %5, ptr %retval, align 8
  br label %return

return:                                           ; preds = %if.end, %if.then
  %6 = load ptr, ptr %retval, align 8
  ret ptr %6
}

; Function Attrs: mustprogress nounwind uwtable
define linkonce_odr dso_local noundef nonnull align 8 dereferenceable(8) ptr @_ZNRSt8optionalImE5valueEv(ptr noundef nonnull align 8 dereferenceable(16) %this) #4 comdat align 2 {
entry:
  %this.addr = alloca ptr, align 8
  store ptr %this, ptr %this.addr, align 8
  %this1 = load ptr, ptr %this.addr, align 8
  %call = call noundef zeroext i1 @_ZNKSt19_Optional_base_implImSt14_Optional_baseImLb1ELb1EEE13_M_is_engagedEv(ptr noundef nonnull align 1 dereferenceable(1) %this1) #3
  br i1 %call, label %if.then, label %if.end

if.then:                                          ; preds = %entry
  %call2 = call noundef nonnull align 8 dereferenceable(8) ptr @_ZNSt19_Optional_base_implImSt14_Optional_baseImLb1ELb1EEE6_M_getEv(ptr noundef nonnull align 1 dereferenceable(1) %this1) #3
  ret ptr %call2

if.end:                                           ; preds = %entry
  call void @_ZSt27__throw_bad_optional_accessv() #15
  unreachable
}

; Function Attrs: mustprogress nounwind uwtable
define linkonce_odr dso_local noundef zeroext i1 @_ZNKSt8optionalImE9has_valueEv(ptr noundef nonnull align 8 dereferenceable(16) %this) #4 comdat align 2 {
entry:
  %this.addr = alloca ptr, align 8
  store ptr %this, ptr %this.addr, align 8
  %this1 = load ptr, ptr %this.addr, align 8
  %call = call noundef zeroext i1 @_ZNKSt19_Optional_base_implImSt14_Optional_baseImLb1ELb1EEE13_M_is_engagedEv(ptr noundef nonnull align 1 dereferenceable(1) %this1) #3
  ret i1 %call
}

; Function Attrs: mustprogress nounwind uwtable
define internal noundef zeroext i1 @_ZNK4node12_GLOBAL__N_113DataQueueImpl13is_idempotentEv(ptr noundef nonnull align 8 dereferenceable(152) %this) unnamed_addr #4 align 2 {
entry:
  %this.addr = alloca ptr, align 8
  store ptr %this, ptr %this.addr, align 8
  %this1 = load ptr, ptr %this.addr, align 8
  %idempotent_ = getelementptr inbounds %"class.node::(anonymous namespace)::DataQueueImpl", ptr %this1, i32 0, i32 3
  %0 = load i8, ptr %idempotent_, align 8
  %tobool = trunc i8 %0 to i1
  ret i1 %tobool
}

; Function Attrs: mustprogress nounwind uwtable
define internal void @_ZN4node12_GLOBAL__N_113DataQueueImpl3capEm(ptr noundef nonnull align 8 dereferenceable(152) %this, i64 noundef %limit) unnamed_addr #4 align 2 {
entry:
  %this.addr = alloca ptr, align 8
  %limit.addr = alloca i64, align 8
  %ref.tmp = alloca %"class.std::optional", align 8
  %ref.tmp9 = alloca %"class.std::optional", align 8
  store ptr %this, ptr %this.addr, align 8
  store i64 %limit, ptr %limit.addr, align 8
  %this1 = load ptr, ptr %this.addr, align 8
  %call = call noundef zeroext i1 @_ZNK4node12_GLOBAL__N_113DataQueueImpl13is_idempotentEv(ptr noundef nonnull align 8 dereferenceable(152) %this1)
  br i1 %call, label %if.then, label %if.end

if.then:                                          ; preds = %entry
  br label %return

if.end:                                           ; preds = %entry
  %capped_size_ = getelementptr inbounds %"class.node::(anonymous namespace)::DataQueueImpl", ptr %this1, i32 0, i32 6
  %call2 = call noundef zeroext i1 @_ZNKSt8optionalImE9has_valueEv(ptr noundef nonnull align 8 dereferenceable(16) %capped_size_) #3
  br i1 %call2, label %if.then3, label %if.end8

if.then3:                                         ; preds = %if.end
  %capped_size_4 = getelementptr inbounds %"class.node::(anonymous namespace)::DataQueueImpl", ptr %this1, i32 0, i32 6
  %call5 = call noundef nonnull align 8 dereferenceable(8) ptr @_ZNRSt8optionalImE5valueEv(ptr noundef nonnull align 8 dereferenceable(16) %capped_size_4)
  %call6 = call noundef nonnull align 8 dereferenceable(8) ptr @_ZSt3minImERKT_S2_S2_(ptr noundef nonnull align 8 dereferenceable(8) %limit.addr, ptr noundef nonnull align 8 dereferenceable(8) %call5)
  call void @_ZNSt8optionalImEC2IRKmTnNSt9enable_ifIX7__and_vISt6__not_ISt7is_sameIS0_NSt9remove_cvINSt16remove_referenceIT_E4typeEE4typeEEES5_IS6_ISt10in_place_tSD_EESt16is_constructibleImJS9_EESt14is_convertibleIS9_mEEEbE4typeELb1EEEOS9_(ptr noundef nonnull align 8 dereferenceable(16) %ref.tmp, ptr noundef nonnull align 8 dereferenceable(8) %call6) #3
  %capped_size_7 = getelementptr inbounds %"class.node::(anonymous namespace)::DataQueueImpl", ptr %this1, i32 0, i32 6
  call void @llvm.memcpy.p0.p0.i64(ptr align 8 %capped_size_7, ptr align 8 %ref.tmp, i64 16, i1 false)
  br label %return

if.end8:                                          ; preds = %if.end
  call void @_ZNSt8optionalImEC2IRmTnNSt9enable_ifIX7__and_vISt6__not_ISt7is_sameIS0_NSt9remove_cvINSt16remove_referenceIT_E4typeEE4typeEEES4_IS5_ISt10in_place_tSC_EESt16is_constructibleImJS8_EESt14is_convertibleIS8_mEEEbE4typeELb1EEEOS8_(ptr noundef nonnull align 8 dereferenceable(16) %ref.tmp9, ptr noundef nonnull align 8 dereferenceable(8) %limit.addr) #3
  %capped_size_10 = getelementptr inbounds %"class.node::(anonymous namespace)::DataQueueImpl", ptr %this1, i32 0, i32 6
  call void @llvm.memcpy.p0.p0.i64(ptr align 8 %capped_size_10, ptr align 8 %ref.tmp9, i64 16, i1 false)
  br label %return

return:                                           ; preds = %if.end8, %if.then3, %if.then
  ret void
}