; Function Attrs: mustprogress nofree norecurse nosync nounwind willreturn memory(argmem: readwrite) uwtable
define internal void @_ZN4node12_GLOBAL__N_113DataQueueImpl3capEm(ptr nocapture noundef nonnull align 8 dereferenceable(152) %this, i64 noundef %limit) unnamed_addr #16 align 2 {
entry:
  %idempotent_.i = getelementptr inbounds i8, ptr %this, i64 48
  %0 = load i8, ptr %idempotent_.i, align 8
  %1 = and i8 %0, 1
  %tobool.i.not = icmp eq i8 %1, 0
  br i1 %tobool.i.not, label %if.end, label %return

if.end:                                           ; preds = %entry
  %capped_size_ = getelementptr inbounds i8, ptr %this, i64 72
  %_M_engaged.i.i = getelementptr inbounds i8, ptr %this, i64 80
  %2 = load i8, ptr %_M_engaged.i.i, align 8
  %3 = and i8 %2, 1
  %tobool.i.i.not = icmp eq i8 %3, 0
  %4 = load i64, ptr %capped_size_, align 8
  %.sroa.speculated = tail call i64 @llvm.umin.i64(i64 %4, i64 %limit)
  %limit.sink = select i1 %tobool.i.i.not, i64 %limit, i64 %.sroa.speculated
  store i64 %limit.sink, ptr %capped_size_, align 8
  store i8 1, ptr %_M_engaged.i.i, align 8
  br label %return

return:                                           ; preds = %if.end, %entry
  ret void
}